target datalayout = "e-m:e-p270:32:32-p271:32:32-p272:64:64-i64:64-i128:128-f80:128-n8:16:32:64-S128"
target triple = "x86_64-pc-linux-gnu"

%class.cmXMLWriter = type <{ ptr, %"class.std::stack", %"class.std::__cxx11::basic_string", i64, i64, i8, i8, i8, [5 x i8] }>
%"class.std::stack" = type { %"class.std::vector" }
%"class.std::vector" = type { %"struct.std::_Vector_base" }
%"struct.std::_Vector_base" = type { %"struct.std::_Vector_base<std::__cxx11::basic_string<char>, std::allocator<std::__cxx11::basic_string<char>>>::_Vector_impl" }
%"struct.std::_Vector_base<std::__cxx11::basic_string<char>, std::allocator<std::__cxx11::basic_string<char>>>::_Vector_impl" = type { %"struct.std::_Vector_base<std::__cxx11::basic_string<char>, std::allocator<std::__cxx11::basic_string<char>>>::_Vector_impl_data" }
%"struct.std::_Vector_base<std::__cxx11::basic_string<char>, std::allocator<std::__cxx11::basic_string<char>>>::_Vector_impl_data" = type { ptr, ptr, ptr }
%"class.std::__cxx11::basic_string" = type { %"struct.std::__cxx11::basic_string<char>::_Alloc_hider", i64, %union.anon }
%"struct.std::__cxx11::basic_string<char>::_Alloc_hider" = type { ptr }
%union.anon = type { i64, [8 x i8] }
%"class.std::locale" = type { ptr }
%"class.std::ios_base" = type { ptr, i64, i64, i32, i32, i32, ptr, %"struct.std::ios_base::_Words", [8 x %"struct.std::ios_base::_Words"], i32, ptr, %"class.std::locale" }
%"struct.std::ios_base::_Words" = type { ptr, i64 }

; Function Attrs: mustprogress nounwind uwtable
define available_externally noundef ptr @_ZNKSt7__cxx1112basic_stringIcSt11char_traitsIcESaIcEE7_M_dataEv(ptr noundef nonnull align 8 dereferenceable(32) %0) #1 align 2 {
  %2 = alloca ptr, align 8
  store ptr %0, ptr %2, align 8, !tbaa !33
  %3 = load ptr, ptr %2, align 8
  %4 = getelementptr inbounds nuw %"class.std::__cxx11::basic_string", ptr %3, i32 0, i32 0
  %5 = getelementptr inbounds nuw %"struct.std::__cxx11::basic_string<char>::_Alloc_hider", ptr %4, i32 0, i32 0
  %6 = load ptr, ptr %5, align 8, !tbaa !66
  ret ptr %6
}

; Function Attrs: mustprogress nounwind uwtable
define available_externally noundef i64 @_ZNKSt7__cxx1112basic_stringIcSt11char_traitsIcESaIcEE4sizeEv(ptr noundef nonnull align 8 dereferenceable(32) %0) #1 align 2 {
  %2 = alloca ptr, align 8
  store ptr %0, ptr %2, align 8, !tbaa !33
  %3 = load ptr, ptr %2, align 8
  %4 = getelementptr inbounds nuw %"class.std::__cxx11::basic_string", ptr %3, i32 0, i32 1
  %5 = load i64, ptr %4, align 8, !tbaa !65
  ret i64 %5
}

; Function Attrs: mustprogress nounwind uwtable
define available_externally noundef ptr @_ZNKSt7__cxx1112basic_stringIcSt11char_traitsIcESaIcEE4dataEv(ptr noundef nonnull align 8 dereferenceable(32) %0) #1 align 2 {
  %2 = alloca ptr, align 8
  store ptr %0, ptr %2, align 8, !tbaa !33
  %3 = load ptr, ptr %2, align 8
  %4 = call noundef ptr @_ZNKSt7__cxx1112basic_stringIcSt11char_traitsIcESaIcEE7_M_dataEv(ptr noundef nonnull align 8 dereferenceable(32) %3)
  ret ptr %4
}

; Function Attrs: mustprogress nounwind uwtable
define linkonce_odr dso_local noundef i64 @_ZNKSt8ios_base5widthEv(ptr noundef nonnull align 8 dereferenceable(216) %0) #1 comdat align 2 {
  %2 = alloca ptr, align 8
  store ptr %0, ptr %2, align 8, !tbaa !84
  %3 = load ptr, ptr %2, align 8
  %4 = getelementptr inbounds nuw %"class.std::ios_base", ptr %3, i32 0, i32 2
  %5 = load i64, ptr %4, align 8, !tbaa !86
  ret i64 %5
}

; Function Attrs: inlinehint mustprogress uwtable
define available_externally noundef nonnull align 8 dereferenceable(8) ptr @_ZStlsIcSt11char_traitsIcESaIcEERSt13basic_ostreamIT_T0_ES7_RKNSt7__cxx1112basic_stringIS4_S5_T1_EE(ptr noundef nonnull align 8 dereferenceable(8) %0, ptr noundef nonnull align 8 dereferenceable(32) %1) #4 {
  %3 = alloca ptr, align 8
  %4 = alloca ptr, align 8
  store ptr %0, ptr %3, align 8, !tbaa !9
  store ptr %1, ptr %4, align 8, !tbaa !33
  %5 = load ptr, ptr %3, align 8, !tbaa !9
  %6 = load ptr, ptr %4, align 8, !tbaa !33
  %7 = call noundef ptr @_ZNKSt7__cxx1112basic_stringIcSt11char_traitsIcESaIcEE4dataEv(ptr noundef nonnull align 8 dereferenceable(32) %6) #15
  %8 = load ptr, ptr %4, align 8, !tbaa !33
  %9 = call noundef i64 @_ZNKSt7__cxx1112basic_stringIcSt11char_traitsIcESaIcEE4sizeEv(ptr noundef nonnull align 8 dereferenceable(32) %8) #15
  %10 = call noundef nonnull align 8 dereferenceable(8) ptr @_ZSt16__ostream_insertIcSt11char_traitsIcEERSt13basic_ostreamIT_T0_ES6_PKS3_l(ptr noundef nonnull align 8 dereferenceable(8) %5, ptr noundef %7, i64 noundef %9)
  ret ptr %10
}

; Function Attrs: inlinehint mustprogress uwtable
define available_externally noundef nonnull align 8 dereferenceable(8) ptr @_ZStlsISt11char_traitsIcEERSt13basic_ostreamIcT_ES5_c(ptr noundef nonnull align 8 dereferenceable(8) %0, i8 noundef signext %1) #4 {
  %3 = alloca ptr, align 8
  %4 = alloca ptr, align 8
  %5 = alloca i8, align 1
  store ptr %0, ptr %4, align 8, !tbaa !9
  store i8 %1, ptr %5, align 1, !tbaa !34
  %6 = load ptr, ptr %4, align 8, !tbaa !9
  %7 = load ptr, ptr %6, align 8, !tbaa !37
  %8 = getelementptr i8, ptr %7, i64 -24
  %9 = load i64, ptr %8, align 8
  %10 = getelementptr inbounds i8, ptr %6, i64 %9
  %11 = call noundef i64 @_ZNKSt8ios_base5widthEv(ptr noundef nonnull align 8 dereferenceable(216) %10)
  %12 = icmp ne i64 %11, 0
  br i1 %12, label %13, label %16

13:                                               ; preds = %2
  %14 = load ptr, ptr %4, align 8, !tbaa !9
  %15 = call noundef nonnull align 8 dereferenceable(8) ptr @_ZSt16__ostream_insertIcSt11char_traitsIcEERSt13basic_ostreamIT_T0_ES6_PKS3_l(ptr noundef nonnull align 8 dereferenceable(8) %14, ptr noundef %5, i64 noundef 1)
  store ptr %15, ptr %3, align 8
  br label %21

16:                                               ; preds = %2
  %17 = load ptr, ptr %4, align 8, !tbaa !9
  %18 = load i8, ptr %5, align 1, !tbaa !34
  %19 = call noundef nonnull align 8 dereferenceable(8) ptr @_ZNSo3putEc(ptr noundef nonnull align 8 dereferenceable(8) %17, i8 noundef signext %18)
  %20 = load ptr, ptr %4, align 8, !tbaa !9
  store ptr %20, ptr %3, align 8
  br label %21

21:                                               ; preds = %16, %13
  %22 = load ptr, ptr %3, align 8
  ret ptr %22
}

; Function Attrs: mustprogress uwtable
define dso_local void @_ZN11cmXMLWriter20ConditionalLineBreakEb(ptr noundef nonnull align 8 dereferenceable(83) %0, i1 noundef zeroext %1) #0 align 2 {
  %3 = alloca ptr, align 8
  %4 = alloca i8, align 1
  %5 = alloca i64, align 8
  store ptr %0, ptr %3, align 8, !tbaa !4
  %6 = zext i1 %1 to i8
  store i8 %6, ptr %4, align 1, !tbaa !41
  %7 = load ptr, ptr %3, align 8
  %8 = load i8, ptr %4, align 1, !tbaa !41, !range !39, !noundef !40
  %9 = trunc i8 %8 to i1
  br i1 %9, label %10, label %32

10:                                               ; preds = %2
  %11 = getelementptr inbounds nuw %class.cmXMLWriter, ptr %7, i32 0, i32 0
  %12 = load ptr, ptr %11, align 8, !tbaa !36
  %13 = call noundef nonnull align 8 dereferenceable(8) ptr @_ZStlsISt11char_traitsIcEERSt13basic_ostreamIcT_ES5_c(ptr noundef nonnull align 8 dereferenceable(8) %12, i8 noundef signext 10)
  call void @llvm.lifetime.start.p0(i64 8, ptr %5) #15
  store i64 0, ptr %5, align 8, !tbaa !11
  br label %14

14:                                               ; preds = %28, %10
  %15 = load i64, ptr %5, align 8, !tbaa !11
  %16 = getelementptr inbounds nuw %class.cmXMLWriter, ptr %7, i32 0, i32 4
  %17 = load i64, ptr %16, align 8, !tbaa !25
  %18 = getelementptr inbounds nuw %class.cmXMLWriter, ptr %7, i32 0, i32 3
  %19 = load i64, ptr %18, align 8, !tbaa !13
  %20 = add i64 %17, %19
  %21 = icmp ult i64 %15, %20
  br i1 %21, label %23, label %22

22:                                               ; preds = %14
  call void @llvm.lifetime.end.p0(i64 8, ptr %5) #15
  br label %31

23:                                               ; preds = %14
  %24 = getelementptr inbounds nuw %class.cmXMLWriter, ptr %7, i32 0, i32 0
  %25 = load ptr, ptr %24, align 8, !tbaa !36
  %26 = getelementptr inbounds nuw %class.cmXMLWriter, ptr %7, i32 0, i32 2
  %27 = call noundef nonnull align 8 dereferenceable(8) ptr @_ZStlsIcSt11char_traitsIcESaIcEERSt13basic_ostreamIT_T0_ES7_RKNSt7__cxx1112basic_stringIS4_S5_T1_EE(ptr noundef nonnull align 8 dereferenceable(8) %25, ptr noundef nonnull align 8 dereferenceable(32) %26)
  br label %28

28:                                               ; preds = %23
  %29 = load i64, ptr %5, align 8, !tbaa !11
  %30 = add i64 %29, 1
  store i64 %30, ptr %5, align 8, !tbaa !11
  br label %14, !llvm.loop !42

31:                                               ; preds = %22
  br label %32

32:                                               ; preds = %31, %2
  ret void
}