; Function Attrs: mustprogress uwtable
define dso_local void @_ZN11cmXMLWriter20ConditionalLineBreakEb(ptr noundef nonnull readonly align 8 captures(none) dereferenceable(83) %0, i1 noundef zeroext %1) local_unnamed_addr #0 align 2 {
  %3 = alloca i8, align 1
  br i1 %1, label %4, label %.loopexit

4:                                                ; preds = %2
  %5 = load ptr, ptr %0, align 8, !tbaa !31
  call void @llvm.lifetime.start.p0(i64 1, ptr nonnull %3)
  store i8 10, ptr %3, align 1, !tbaa !27
  %6 = load ptr, ptr %5, align 8, !tbaa !32
  %7 = getelementptr i8, ptr %6, i64 -24
  %8 = load i64, ptr %7, align 8
  %9 = getelementptr inbounds i8, ptr %5, i64 %8
  %10 = getelementptr inbounds nuw i8, ptr %9, i64 16
  %11 = load i64, ptr %10, align 8, !tbaa !44
  %.not.i = icmp eq i64 %11, 0
  br i1 %.not.i, label %14, label %12

12:                                               ; preds = %4
  %13 = call noundef nonnull align 8 dereferenceable(8) ptr @_ZSt16__ostream_insertIcSt11char_traitsIcEERSt13basic_ostreamIT_T0_ES6_PKS3_l(ptr noundef nonnull align 8 dereferenceable(8) %5, ptr noundef nonnull %3, i64 noundef 1)
  br label %_ZStlsISt11char_traitsIcEERSt13basic_ostreamIcT_ES5_c.exit

14:                                               ; preds = %4
  %15 = tail call noundef nonnull align 8 dereferenceable(8) ptr @_ZNSo3putEc(ptr noundef nonnull align 8 dereferenceable(8) %5, i8 noundef signext 10)
  br label %_ZStlsISt11char_traitsIcEERSt13basic_ostreamIcT_ES5_c.exit

_ZStlsISt11char_traitsIcEERSt13basic_ostreamIcT_ES5_c.exit: ; preds = %12, %14
  call void @llvm.lifetime.end.p0(i64 1, ptr nonnull %3)
  %16 = getelementptr inbounds nuw i8, ptr %0, i64 72
  %17 = getelementptr inbounds nuw i8, ptr %0, i64 64
  %18 = load i64, ptr %16, align 8, !tbaa !48
  %19 = load i64, ptr %17, align 8, !tbaa !12
  %20 = sub i64 0, %18
  %.not = icmp eq i64 %19, %20
  br i1 %.not, label %.loopexit, label %.lr.ph

.lr.ph:                                           ; preds = %_ZStlsISt11char_traitsIcEERSt13basic_ostreamIcT_ES5_c.exit
  %21 = getelementptr inbounds nuw i8, ptr %0, i64 32
  %22 = getelementptr inbounds nuw i8, ptr %0, i64 40
  br label %23

23:                                               ; preds = %.lr.ph, %23
  %.03 = phi i64 [ 0, %.lr.ph ], [ %28, %23 ]
  %24 = load ptr, ptr %0, align 8, !tbaa !31
  %25 = load ptr, ptr %21, align 8, !tbaa !25
  %26 = load i64, ptr %22, align 8, !tbaa !26
  %27 = call noundef nonnull align 8 dereferenceable(8) ptr @_ZSt16__ostream_insertIcSt11char_traitsIcEERSt13basic_ostreamIT_T0_ES6_PKS3_l(ptr noundef nonnull align 8 dereferenceable(8) %24, ptr noundef %25, i64 noundef %26)
  %28 = add nuw i64 %.03, 1
  %29 = load i64, ptr %16, align 8, !tbaa !48
  %30 = load i64, ptr %17, align 8, !tbaa !12
  %31 = add i64 %30, %29
  %32 = icmp ult i64 %28, %31
  br i1 %32, label %23, label %.loopexit, !llvm.loop !49

.loopexit:                                        ; preds = %23, %_ZStlsISt11char_traitsIcEERSt13basic_ostreamIcT_ES5_c.exit, %2
  ret void
}